; Function Attrs: mustprogress nofree norecurse nosync nounwind willreturn memory(read, argmem: readwrite, inaccessiblemem: none) uwtable
define internal noundef i32 @H5G__loc_addr_cb(ptr readnone captures(none) %0, ptr readnone captures(none) %1, ptr readnone captures(none) %2, ptr noundef readonly captures(address_is_null) %3, ptr noundef writeonly captures(none) %4, ptr noundef writeonly captures(none) %5) #4 {
  %7 = load i8, ptr @H5G_init_g, align 1, !tbaa !3, !range !7, !noundef !8
  %8 = trunc nuw i8 %7 to i1
  %9 = load i8, ptr @H5_libterm_g, align 1, !range !7
  %10 = trunc nuw i8 %9 to i1
  %11 = xor i1 %10, true
  %12 = select i1 %8, i1 true, i1 %11
  br i1 %12, label %13, label %20, !prof !9

13:                                               ; preds = %6
  %14 = icmp eq ptr %3, null
  br i1 %14, label %19, label %15

15:                                               ; preds = %13
  %16 = load ptr, ptr %3, align 8, !tbaa !12
  %17 = getelementptr inbounds nuw i8, ptr %16, i64 8
  %18 = load i64, ptr %17, align 8, !tbaa !36
  br label %19

19:                                               ; preds = %13, %15
  %storemerge = phi i64 [ %18, %15 ], [ -1, %13 ]
  store i64 %storemerge, ptr %4, align 8, !tbaa !10
  store i32 0, ptr %5, align 4, !tbaa !22
  br label %20

20:                                               ; preds = %19, %6
  ret i32 0
}